target datalayout = "e-m:e-p270:32:32-p271:32:32-p272:64:64-i64:64-i128:128-f80:128-n8:16:32:64-S128"
target triple = "x86_64-unknown-linux-gnu"

%struct.UText = type { i32, i32, i32, i32, i64, i32, i32, i64, i32, i32, ptr, ptr, ptr, ptr, ptr, ptr, ptr, ptr, i64, i32, i32, i64, i32, i32 }
%"class.icu_75::UnicodeString" = type { %"class.icu_75::Replaceable", %"union.icu_75::UnicodeString::StackBufferOrFields" }
%"class.icu_75::Replaceable" = type { %"class.icu_75::UObject" }
%"class.icu_75::UObject" = type { ptr }
%"union.icu_75::UnicodeString::StackBufferOrFields" = type { %struct.anon.0, [32 x i8] }
%struct.anon.0 = type { i16, i32, i32, ptr }
%struct.anon = type { i16, [27 x i16] }

; Function Attrs: mustprogress nounwind uwtable
define linkonce_odr void @_ZN6icu_7513UnicodeString13setZeroLengthEv(ptr noundef nonnull align 8 dereferenceable(64) %this) #1 comdat align 2 {
entry:
  %this.addr = alloca ptr, align 8
  store ptr %this, ptr %this.addr, align 8
  %this1 = load ptr, ptr %this.addr, align 8
  %fUnion = getelementptr inbounds %"class.icu_75::UnicodeString", ptr %this1, i32 0, i32 1
  %fLengthAndFlags = getelementptr inbounds %struct.anon.0, ptr %fUnion, i32 0, i32 0
  %0 = load i16, ptr %fLengthAndFlags, align 8
  %conv = sext i16 %0 to i32
  %and = and i32 %conv, 31
  %conv2 = trunc i32 %and to i16
  store i16 %conv2, ptr %fLengthAndFlags, align 8
  ret void
}

; Function Attrs: mustprogress nounwind uwtable
define linkonce_odr void @_ZN6icu_7513UnicodeString10setToEmptyEv(ptr noundef nonnull align 8 dereferenceable(64) %this) #1 comdat align 2 {
entry:
  %this.addr = alloca ptr, align 8
  store ptr %this, ptr %this.addr, align 8
  %this1 = load ptr, ptr %this.addr, align 8
  %fUnion = getelementptr inbounds %"class.icu_75::UnicodeString", ptr %this1, i32 0, i32 1
  %fLengthAndFlags = getelementptr inbounds %struct.anon.0, ptr %fUnion, i32 0, i32 0
  store i16 2, ptr %fLengthAndFlags, align 8
  ret void
}

; Function Attrs: mustprogress nounwind uwtable
define linkonce_odr noundef signext i8 @_ZNK6icu_7513UnicodeString7isBogusEv(ptr noundef nonnull align 8 dereferenceable(64) %this) #1 comdat align 2 {
entry:
  %this.addr = alloca ptr, align 8
  store ptr %this, ptr %this.addr, align 8
  %this1 = load ptr, ptr %this.addr, align 8
  %fUnion = getelementptr inbounds %"class.icu_75::UnicodeString", ptr %this1, i32 0, i32 1
  %fLengthAndFlags = getelementptr inbounds %struct.anon.0, ptr %fUnion, i32 0, i32 0
  %0 = load i16, ptr %fLengthAndFlags, align 8
  %conv = sext i16 %0 to i32
  %and = and i32 %conv, 1
  %conv2 = trunc i32 %and to i8
  ret i8 %conv2
}

; Function Attrs: mustprogress uwtable
define linkonce_odr noundef nonnull align 8 dereferenceable(64) ptr @_ZN6icu_7513UnicodeString6removeEv(ptr noundef nonnull align 8 dereferenceable(64) %this) #0 comdat align 2 {
entry:
  %this.addr = alloca ptr, align 8
  store ptr %this, ptr %this.addr, align 8
  %this1 = load ptr, ptr %this.addr, align 8
  %call = call noundef signext i8 @_ZNK6icu_7513UnicodeString7isBogusEv(ptr noundef nonnull align 8 dereferenceable(64) %this1)
  %tobool = icmp ne i8 %call, 0
  br i1 %tobool, label %if.then, label %if.else

if.then:                                          ; preds = %entry
  call void @_ZN6icu_7513UnicodeString10setToEmptyEv(ptr noundef nonnull align 8 dereferenceable(64) %this1)
  br label %if.end

if.else:                                          ; preds = %entry
  call void @_ZN6icu_7513UnicodeString13setZeroLengthEv(ptr noundef nonnull align 8 dereferenceable(64) %this1)
  br label %if.end

if.end:                                           ; preds = %if.else, %if.then
  ret ptr %this1
}

; Function Attrs: mustprogress nounwind uwtable
define linkonce_odr noundef i32 @_ZNK6icu_7513UnicodeString14getShortLengthEv(ptr noundef nonnull align 8 dereferenceable(64) %this) #1 comdat align 2 {
entry:
  %this.addr = alloca ptr, align 8
  store ptr %this, ptr %this.addr, align 8
  %this1 = load ptr, ptr %this.addr, align 8
  %fUnion = getelementptr inbounds %"class.icu_75::UnicodeString", ptr %this1, i32 0, i32 1
  %fLengthAndFlags = getelementptr inbounds %struct.anon.0, ptr %fUnion, i32 0, i32 0
  %0 = load i16, ptr %fLengthAndFlags, align 8
  %conv = sext i16 %0 to i32
  %shr = ashr i32 %conv, 5
  ret i32 %shr
}

; Function Attrs: mustprogress nounwind uwtable
define linkonce_odr noundef signext i8 @_ZNK6icu_7513UnicodeString14hasShortLengthEv(ptr noundef nonnull align 8 dereferenceable(64) %this) #1 comdat align 2 {
entry:
  %this.addr = alloca ptr, align 8
  store ptr %this, ptr %this.addr, align 8
  %this1 = load ptr, ptr %this.addr, align 8
  %fUnion = getelementptr inbounds %"class.icu_75::UnicodeString", ptr %this1, i32 0, i32 1
  %fLengthAndFlags = getelementptr inbounds %struct.anon.0, ptr %fUnion, i32 0, i32 0
  %0 = load i16, ptr %fLengthAndFlags, align 8
  %conv = sext i16 %0 to i32
  %cmp = icmp sge i32 %conv, 0
  %conv2 = zext i1 %cmp to i8
  ret i8 %conv2
}

; Function Attrs: mustprogress nounwind uwtable
define linkonce_odr noundef ptr @_ZNK6icu_7513UnicodeString9getBufferEv(ptr noundef nonnull align 8 dereferenceable(64) %this) #1 comdat align 2 {
entry:
  %retval = alloca ptr, align 8
  %this.addr = alloca ptr, align 8
  store ptr %this, ptr %this.addr, align 8
  %this1 = load ptr, ptr %this.addr, align 8
  %fUnion = getelementptr inbounds %"class.icu_75::UnicodeString", ptr %this1, i32 0, i32 1
  %fLengthAndFlags = getelementptr inbounds %struct.anon.0, ptr %fUnion, i32 0, i32 0
  %0 = load i16, ptr %fLengthAndFlags, align 8
  %conv = sext i16 %0 to i32
  %and = and i32 %conv, 17
  %tobool = icmp ne i32 %and, 0
  br i1 %tobool, label %if.then, label %if.else

if.then:                                          ; preds = %entry
  store ptr null, ptr %retval, align 8
  br label %return

if.else:                                          ; preds = %entry
  %fUnion2 = getelementptr inbounds %"class.icu_75::UnicodeString", ptr %this1, i32 0, i32 1
  %fLengthAndFlags3 = getelementptr inbounds %struct.anon.0, ptr %fUnion2, i32 0, i32 0
  %1 = load i16, ptr %fLengthAndFlags3, align 8
  %conv4 = sext i16 %1 to i32
  %and5 = and i32 %conv4, 2
  %tobool6 = icmp ne i32 %and5, 0
  br i1 %tobool6, label %if.then7, label %if.else9

if.then7:                                         ; preds = %if.else
  %fUnion8 = getelementptr inbounds %"class.icu_75::UnicodeString", ptr %this1, i32 0, i32 1
  %fBuffer = getelementptr inbounds %struct.anon, ptr %fUnion8, i32 0, i32 1
  %arraydecay = getelementptr inbounds [27 x i16], ptr %fBuffer, i64 0, i64 0
  store ptr %arraydecay, ptr %retval, align 8
  br label %return

if.else9:                                         ; preds = %if.else
  %fUnion10 = getelementptr inbounds %"class.icu_75::UnicodeString", ptr %this1, i32 0, i32 1
  %fArray = getelementptr inbounds %struct.anon.0, ptr %fUnion10, i32 0, i32 3
  %2 = load ptr, ptr %fArray, align 8
  store ptr %2, ptr %retval, align 8
  br label %return

return:                                           ; preds = %if.else9, %if.then7, %if.then
  %3 = load ptr, ptr %retval, align 8
  ret ptr %3
}

; Function Attrs: mustprogress uwtable
define linkonce_odr noundef nonnull align 8 dereferenceable(64) ptr @_ZN6icu_7513UnicodeString6removeEii(ptr noundef nonnull align 8 dereferenceable(64) %this, i32 noundef %start, i32 noundef %_length) #0 comdat align 2 {
entry:
  %retval = alloca ptr, align 8
  %this.addr = alloca ptr, align 8
  %start.addr = alloca i32, align 4
  %_length.addr = alloca i32, align 4
  store ptr %this, ptr %this.addr, align 8
  store i32 %start, ptr %start.addr, align 4
  store i32 %_length, ptr %_length.addr, align 4
  %this1 = load ptr, ptr %this.addr, align 8
  %0 = load i32, ptr %start.addr, align 4
  %cmp = icmp sle i32 %0, 0
  br i1 %cmp, label %land.lhs.true, label %if.end

land.lhs.true:                                    ; preds = %entry
  %1 = load i32, ptr %_length.addr, align 4
  %cmp2 = icmp eq i32 %1, 2147483647
  br i1 %cmp2, label %if.then, label %if.end

if.then:                                          ; preds = %land.lhs.true
  %call = call noundef nonnull align 8 dereferenceable(64) ptr @_ZN6icu_7513UnicodeString6removeEv(ptr noundef nonnull align 8 dereferenceable(64) %this1)
  store ptr %call, ptr %retval, align 8
  br label %return

if.end:                                           ; preds = %land.lhs.true, %entry
  %2 = load i32, ptr %start.addr, align 4
  %3 = load i32, ptr %_length.addr, align 4
  %call3 = call noundef nonnull align 8 dereferenceable(64) ptr @_ZN6icu_7513UnicodeString9doReplaceEiiPKDsii(ptr noundef nonnull align 8 dereferenceable(64) %this1, i32 noundef %2, i32 noundef %3, ptr noundef null, i32 noundef 0, i32 noundef 0)
  store ptr %call3, ptr %retval, align 8
  br label %return

return:                                           ; preds = %if.end, %if.then
  %4 = load ptr, ptr %retval, align 8
  ret ptr %4
}

; Function Attrs: mustprogress nounwind uwtable
define internal noundef i32 @_ZL8pinIndexRll(ptr noundef nonnull align 8 dereferenceable(8) %index, i64 noundef %limit) #1 {
entry:
  %index.addr = alloca ptr, align 8
  %limit.addr = alloca i64, align 8
  store ptr %index, ptr %index.addr, align 8
  store i64 %limit, ptr %limit.addr, align 8
  %0 = load ptr, ptr %index.addr, align 8
  %1 = load i64, ptr %0, align 8
  %cmp = icmp slt i64 %1, 0
  br i1 %cmp, label %if.then, label %if.else

if.then:                                          ; preds = %entry
  %2 = load ptr, ptr %index.addr, align 8
  store i64 0, ptr %2, align 8
  br label %if.end3

if.else:                                          ; preds = %entry
  %3 = load ptr, ptr %index.addr, align 8
  %4 = load i64, ptr %3, align 8
  %5 = load i64, ptr %limit.addr, align 8
  %cmp1 = icmp sgt i64 %4, %5
  br i1 %cmp1, label %if.then2, label %if.end

if.then2:                                         ; preds = %if.else
  %6 = load i64, ptr %limit.addr, align 8
  %7 = load ptr, ptr %index.addr, align 8
  store i64 %6, ptr %7, align 8
  br label %if.end

if.end:                                           ; preds = %if.then2, %if.else
  br label %if.end3

if.end3:                                          ; preds = %if.end, %if.then
  %8 = load ptr, ptr %index.addr, align 8
  %9 = load i64, ptr %8, align 8
  %conv = trunc i64 %9 to i32
  ret i32 %conv
}

; Function Attrs: mustprogress nounwind uwtable
define internal noundef signext i8 @_ZL9U_FAILURE10UErrorCode(i32 noundef %code) #1 {
entry:
  %code.addr = alloca i32, align 4
  store i32 %code, ptr %code.addr, align 4
  %0 = load i32, ptr %code.addr, align 4
  %cmp = icmp sgt i32 %0, 0
  %conv = zext i1 %cmp to i8
  ret i8 %conv
}

; Function Attrs: mustprogress uwtable
define linkonce_odr noundef i32 @_ZNK6icu_7513UnicodeString6lengthEv(ptr noundef nonnull align 8 dereferenceable(64) %this) #0 comdat align 2 {
entry:
  %this.addr = alloca ptr, align 8
  store ptr %this, ptr %this.addr, align 8
  %this1 = load ptr, ptr %this.addr, align 8
  %call = call noundef signext i8 @_ZNK6icu_7513UnicodeString14hasShortLengthEv(ptr noundef nonnull align 8 dereferenceable(64) %this1)
  %tobool = icmp ne i8 %call, 0
  br i1 %tobool, label %cond.true, label %cond.false

cond.true:                                        ; preds = %entry
  %call2 = call noundef i32 @_ZNK6icu_7513UnicodeString14getShortLengthEv(ptr noundef nonnull align 8 dereferenceable(64) %this1)
  br label %cond.end

cond.false:                                       ; preds = %entry
  %fUnion = getelementptr inbounds %"class.icu_75::UnicodeString", ptr %this1, i32 0, i32 1
  %fLength = getelementptr inbounds %struct.anon.0, ptr %fUnion, i32 0, i32 1
  %0 = load i32, ptr %fLength, align 4
  br label %cond.end

cond.end:                                         ; preds = %cond.false, %cond.true
  %cond = phi i32 [ %call2, %cond.true ], [ %0, %cond.false ]
  ret i32 %cond
}

; Function Attrs: mustprogress uwtable
define internal void @_ZL14unistrTextCopyP5UTextlllaP10UErrorCode(ptr noundef %ut, i64 noundef %start, i64 noundef %limit, i64 noundef %destIndex, i8 noundef signext %move, ptr noundef %pErrorCode) #0 {
entry:
  %ut.addr = alloca ptr, align 8
  %start.addr = alloca i64, align 8
  %limit.addr = alloca i64, align 8
  %destIndex.addr = alloca i64, align 8
  %move.addr = alloca i8, align 1
  %pErrorCode.addr = alloca ptr, align 8
  %us = alloca ptr, align 8
  %length = alloca i32, align 4
  %start32 = alloca i32, align 4
  %limit32 = alloca i32, align 4
  %destIndex32 = alloca i32, align 4
  %segLength = alloca i32, align 4
  store ptr %ut, ptr %ut.addr, align 8
  store i64 %start, ptr %start.addr, align 8
  store i64 %limit, ptr %limit.addr, align 8
  store i64 %destIndex, ptr %destIndex.addr, align 8
  store i8 %move, ptr %move.addr, align 1
  store ptr %pErrorCode, ptr %pErrorCode.addr, align 8
  %0 = load ptr, ptr %ut.addr, align 8
  %context = getelementptr inbounds %struct.UText, ptr %0, i32 0, i32 13
  %1 = load ptr, ptr %context, align 8
  store ptr %1, ptr %us, align 8
  %2 = load ptr, ptr %us, align 8
  %call = call noundef i32 @_ZNK6icu_7513UnicodeString6lengthEv(ptr noundef nonnull align 8 dereferenceable(64) %2)
  store i32 %call, ptr %length, align 4
  %3 = load ptr, ptr %pErrorCode.addr, align 8
  %4 = load i32, ptr %3, align 4
  %call1 = call noundef signext i8 @_ZL9U_FAILURE10UErrorCode(i32 noundef %4)
  %tobool = icmp ne i8 %call1, 0
  br i1 %tobool, label %if.then, label %if.end

if.then:                                          ; preds = %entry
  br label %if.end37

if.end:                                           ; preds = %entry
  %5 = load i32, ptr %length, align 4
  %conv = sext i32 %5 to i64
  %call2 = call noundef i32 @_ZL8pinIndexRll(ptr noundef nonnull align 8 dereferenceable(8) %start.addr, i64 noundef %conv)
  store i32 %call2, ptr %start32, align 4
  %6 = load i32, ptr %length, align 4
  %conv3 = sext i32 %6 to i64
  %call4 = call noundef i32 @_ZL8pinIndexRll(ptr noundef nonnull align 8 dereferenceable(8) %limit.addr, i64 noundef %conv3)
  store i32 %call4, ptr %limit32, align 4
  %7 = load i32, ptr %length, align 4
  %conv5 = sext i32 %7 to i64
  %call6 = call noundef i32 @_ZL8pinIndexRll(ptr noundef nonnull align 8 dereferenceable(8) %destIndex.addr, i64 noundef %conv5)
  store i32 %call6, ptr %destIndex32, align 4
  %8 = load i32, ptr %start32, align 4
  %9 = load i32, ptr %limit32, align 4
  %cmp = icmp sgt i32 %8, %9
  br i1 %cmp, label %if.then9, label %lor.lhs.false

lor.lhs.false:                                    ; preds = %if.end
  %10 = load i32, ptr %start32, align 4
  %11 = load i32, ptr %destIndex32, align 4
  %cmp7 = icmp slt i32 %10, %11
  br i1 %cmp7, label %land.lhs.true, label %if.end10

land.lhs.true:                                    ; preds = %lor.lhs.false
  %12 = load i32, ptr %destIndex32, align 4
  %13 = load i32, ptr %limit32, align 4
  %cmp8 = icmp slt i32 %12, %13
  br i1 %cmp8, label %if.then9, label %if.end10

if.then9:                                         ; preds = %land.lhs.true, %if.end
  %14 = load ptr, ptr %pErrorCode.addr, align 8
  store i32 8, ptr %14, align 4
  br label %if.end37

if.end10:                                         ; preds = %land.lhs.true, %lor.lhs.false
  %15 = load i8, ptr %move.addr, align 1
  %tobool11 = icmp ne i8 %15, 0
  br i1 %tobool11, label %if.then12, label %if.else

if.then12:                                        ; preds = %if.end10
  %16 = load i32, ptr %limit32, align 4
  %17 = load i32, ptr %start32, align 4
  %sub = sub nsw i32 %16, %17
  store i32 %sub, ptr %segLength, align 4
  %18 = load ptr, ptr %us, align 8
  %19 = load i32, ptr %start32, align 4
  %20 = load i32, ptr %limit32, align 4
  %21 = load i32, ptr %destIndex32, align 4
  %vtable = load ptr, ptr %18, align 8
  %vfn = getelementptr inbounds ptr, ptr %vtable, i64 5
  %22 = load ptr, ptr %vfn, align 8
  call void %22(ptr noundef nonnull align 8 dereferenceable(64) %18, i32 noundef %19, i32 noundef %20, i32 noundef %21)
  %23 = load i32, ptr %destIndex32, align 4
  %24 = load i32, ptr %start32, align 4
  %cmp13 = icmp slt i32 %23, %24
  br i1 %cmp13, label %if.then14, label %if.end15

if.then14:                                        ; preds = %if.then12
  %25 = load i32, ptr %segLength, align 4
  %26 = load i32, ptr %start32, align 4
  %add = add nsw i32 %26, %25
  store i32 %add, ptr %start32, align 4
  br label %if.end15

if.end15:                                         ; preds = %if.then14, %if.then12
  %27 = load ptr, ptr %us, align 8
  %28 = load i32, ptr %start32, align 4
  %29 = load i32, ptr %segLength, align 4
  %call16 = call noundef nonnull align 8 dereferenceable(64) ptr @_ZN6icu_7513UnicodeString6removeEii(ptr noundef nonnull align 8 dereferenceable(64) %27, i32 noundef %28, i32 noundef %29)
  br label %if.end19

if.else:                                          ; preds = %if.end10
  %30 = load ptr, ptr %us, align 8
  %31 = load i32, ptr %start32, align 4
  %32 = load i32, ptr %limit32, align 4
  %33 = load i32, ptr %destIndex32, align 4
  %vtable17 = load ptr, ptr %30, align 8
  %vfn18 = getelementptr inbounds ptr, ptr %vtable17, i64 5
  %34 = load ptr, ptr %vfn18, align 8
  call void %34(ptr noundef nonnull align 8 dereferenceable(64) %30, i32 noundef %31, i32 noundef %32, i32 noundef %33)
  br label %if.end19

if.end19:                                         ; preds = %if.else, %if.end15
  %35 = load ptr, ptr %us, align 8
  %call20 = call noundef ptr @_ZNK6icu_7513UnicodeString9getBufferEv(ptr noundef nonnull align 8 dereferenceable(64) %35)
  %36 = load ptr, ptr %ut.addr, align 8
  %chunkContents = getelementptr inbounds %struct.UText, ptr %36, i32 0, i32 10
  store ptr %call20, ptr %chunkContents, align 8
  %37 = load i8, ptr %move.addr, align 1
  %conv21 = sext i8 %37 to i32
  %cmp22 = icmp eq i32 %conv21, 0
  br i1 %cmp22, label %if.then23, label %if.end29

if.then23:                                        ; preds = %if.end19
  %38 = load i32, ptr %limit32, align 4
  %39 = load i32, ptr %start32, align 4
  %sub24 = sub nsw i32 %38, %39
  %40 = load ptr, ptr %ut.addr, align 8
  %chunkLength = getelementptr inbounds %struct.UText, ptr %40, i32 0, i32 9
  %41 = load i32, ptr %chunkLength, align 4
  %add25 = add nsw i32 %41, %sub24
  store i32 %add25, ptr %chunkLength, align 4
  %42 = load ptr, ptr %ut.addr, align 8
  %chunkLength26 = getelementptr inbounds %struct.UText, ptr %42, i32 0, i32 9
  %43 = load i32, ptr %chunkLength26, align 4
  %conv27 = sext i32 %43 to i64
  %44 = load ptr, ptr %ut.addr, align 8
  %chunkNativeLimit = getelementptr inbounds %struct.UText, ptr %44, i32 0, i32 4
  store i64 %conv27, ptr %chunkNativeLimit, align 8
  %45 = load ptr, ptr %ut.addr, align 8
  %chunkLength28 = getelementptr inbounds %struct.UText, ptr %45, i32 0, i32 9
  %46 = load i32, ptr %chunkLength28, align 4
  %47 = load ptr, ptr %ut.addr, align 8
  %nativeIndexingLimit = getelementptr inbounds %struct.UText, ptr %47, i32 0, i32 6
  store i32 %46, ptr %nativeIndexingLimit, align 4
  br label %if.end29

if.end29:                                         ; preds = %if.then23, %if.end19
  %48 = load i32, ptr %destIndex32, align 4
  %49 = load i32, ptr %limit32, align 4
  %add30 = add nsw i32 %48, %49
  %50 = load i32, ptr %start32, align 4
  %sub31 = sub nsw i32 %add30, %50
  %51 = load ptr, ptr %ut.addr, align 8
  %chunkOffset = getelementptr inbounds %struct.UText, ptr %51, i32 0, i32 8
  store i32 %sub31, ptr %chunkOffset, align 8
  %52 = load i8, ptr %move.addr, align 1
  %tobool32 = icmp ne i8 %52, 0
  br i1 %tobool32, label %land.lhs.true33, label %if.end37

land.lhs.true33:                                  ; preds = %if.end29
  %53 = load i32, ptr %destIndex32, align 4
  %54 = load i32, ptr %start32, align 4
  %cmp34 = icmp sgt i32 %53, %54
  br i1 %cmp34, label %if.then35, label %if.end37

if.then35:                                        ; preds = %land.lhs.true33
  %55 = load i32, ptr %destIndex32, align 4
  %56 = load ptr, ptr %ut.addr, align 8
  %chunkOffset36 = getelementptr inbounds %struct.UText, ptr %56, i32 0, i32 8
  store i32 %55, ptr %chunkOffset36, align 8
  br label %if.end37

if.end37:                                         ; preds = %if.then35, %land.lhs.true33, %if.end29, %if.then9, %if.then
  ret void
}