; Function Attrs: mustprogress uwtable
define internal void @_ZL14unistrTextCopyP5UTextlllaP10UErrorCode(ptr nocapture noundef %ut, i64 noundef %start, i64 noundef %limit, i64 noundef %destIndex, i8 noundef signext %move, ptr nocapture noundef %pErrorCode) #0 {
entry:
  %context = getelementptr inbounds i8, ptr %ut, i64 72
  %0 = load ptr, ptr %context, align 8
  %fUnion.i.i = getelementptr inbounds i8, ptr %0, i64 8
  %1 = load i32, ptr %pErrorCode, align 4
  %cmp.i = icmp slt i32 %1, 1
  br i1 %cmp.i, label %if.end, label %if.end37

if.end:                                           ; preds = %entry
  %2 = load i16, ptr %fUnion.i.i, align 8
  %cmp.i.i = icmp slt i16 %2, 0
  %fLength.i = getelementptr inbounds i8, ptr %0, i64 12
  %3 = load i32, ptr %fLength.i, align 4
  %4 = ashr i16 %2, 5
  %shr.i.i = sext i16 %4 to i32
  %cond.i = select i1 %cmp.i.i, i32 %3, i32 %shr.i.i
  %conv = sext i32 %cond.i to i64
  %cmp.i43 = icmp slt i64 %start, 0
  %spec.select62 = tail call i64 @llvm.smin.i64(i64 %conv, i64 %start)
  %5 = trunc i64 %spec.select62 to i32
  %conv.i44 = select i1 %cmp.i43, i32 0, i32 %5
  %cmp.i45 = icmp slt i64 %limit, 0
  %spec.select63 = tail call i64 @llvm.smin.i64(i64 %conv, i64 %limit)
  %6 = trunc i64 %spec.select63 to i32
  %conv.i48 = select i1 %cmp.i45, i32 0, i32 %6
  %cmp.i52 = icmp slt i64 %destIndex, 0
  %spec.select64 = tail call i64 @llvm.smin.i64(i64 %conv, i64 %destIndex)
  %7 = trunc i64 %spec.select64 to i32
  %conv.i55 = select i1 %cmp.i52, i32 0, i32 %7
  %cmp = icmp sgt i32 %conv.i44, %conv.i48
  br i1 %cmp, label %if.then9, label %lor.lhs.false

lor.lhs.false:                                    ; preds = %if.end
  %cmp7 = icmp slt i32 %conv.i44, %conv.i55
  %cmp8 = icmp slt i32 %conv.i55, %conv.i48
  %or.cond = and i1 %cmp7, %cmp8
  br i1 %or.cond, label %if.then9, label %if.end10

if.then9:                                         ; preds = %lor.lhs.false, %if.end
  store i32 8, ptr %pErrorCode, align 4
  br label %if.end37

if.end10:                                         ; preds = %lor.lhs.false
  %tobool11.not = icmp ne i8 %move, 0
  br i1 %tobool11.not, label %if.then12, label %if.else

if.then12:                                        ; preds = %if.end10
  %sub = sub nsw i32 %conv.i48, %conv.i44
  %vtable = load ptr, ptr %0, align 8
  %vfn = getelementptr inbounds i8, ptr %vtable, i64 40
  %8 = load ptr, ptr %vfn, align 8
  tail call void %8(ptr noundef nonnull align 8 dereferenceable(64) %0, i32 noundef %conv.i44, i32 noundef %conv.i48, i32 noundef %conv.i55)
  %cmp13 = icmp slt i32 %conv.i55, %conv.i44
  %spec.select = select i1 %cmp13, i32 %conv.i48, i32 %conv.i44
  %cmp.i59 = icmp slt i32 %spec.select, 1
  %cmp2.i = icmp eq i32 %sub, 2147483647
  %or.cond.i = and i1 %cmp2.i, %cmp.i59
  br i1 %or.cond.i, label %if.then.i, label %if.end.i

if.then.i:                                        ; preds = %if.then12
  %9 = load i16, ptr %fUnion.i.i, align 8
  %conv2.i3.i.i = and i16 %9, 1
  %tobool.not.i.i = icmp eq i16 %conv2.i3.i.i, 0
  %10 = and i16 %9, 30
  %storemerge.i.i = select i1 %tobool.not.i.i, i16 %10, i16 2
  store i16 %storemerge.i.i, ptr %fUnion.i.i, align 8
  br label %if.end19

if.end.i:                                         ; preds = %if.then12
  %call3.i = tail call noundef nonnull align 8 dereferenceable(64) ptr @_ZN6icu_7513UnicodeString9doReplaceEiiPKDsii(ptr noundef nonnull align 8 dereferenceable(64) %0, i32 noundef %spec.select, i32 noundef %sub, ptr noundef null, i32 noundef 0, i32 noundef 0)
  br label %if.end19

if.else:                                          ; preds = %if.end10
  %vtable17 = load ptr, ptr %0, align 8
  %vfn18 = getelementptr inbounds i8, ptr %vtable17, i64 40
  %11 = load ptr, ptr %vfn18, align 8
  tail call void %11(ptr noundef nonnull align 8 dereferenceable(64) %0, i32 noundef %conv.i44, i32 noundef %conv.i48, i32 noundef %conv.i55)
  br label %if.end19

if.end19:                                         ; preds = %if.end.i, %if.then.i, %if.else
  %start32.1 = phi i32 [ %conv.i44, %if.else ], [ %spec.select, %if.then.i ], [ %spec.select, %if.end.i ]
  %12 = load i16, ptr %fUnion.i.i, align 8
  %conv1.i = zext i16 %12 to i32
  %and.i = and i32 %conv1.i, 17
  %tobool.not.i = icmp eq i32 %and.i, 0
  br i1 %tobool.not.i, label %if.else.i61, label %_ZNK6icu_7513UnicodeString9getBufferEv.exit

if.else.i61:                                      ; preds = %if.end19
  %and5.i = and i32 %conv1.i, 2
  %tobool6.not.i = icmp eq i32 %and5.i, 0
  br i1 %tobool6.not.i, label %if.else9.i, label %if.then7.i

if.then7.i:                                       ; preds = %if.else.i61
  %fBuffer.i = getelementptr inbounds i8, ptr %0, i64 10
  br label %_ZNK6icu_7513UnicodeString9getBufferEv.exit

if.else9.i:                                       ; preds = %if.else.i61
  %fArray.i = getelementptr inbounds i8, ptr %0, i64 24
  %13 = load ptr, ptr %fArray.i, align 8
  br label %_ZNK6icu_7513UnicodeString9getBufferEv.exit

_ZNK6icu_7513UnicodeString9getBufferEv.exit:      ; preds = %if.end19, %if.then7.i, %if.else9.i
  %retval.0.i60 = phi ptr [ %fBuffer.i, %if.then7.i ], [ %13, %if.else9.i ], [ null, %if.end19 ]
  %chunkContents = getelementptr inbounds i8, ptr %ut, i64 48
  store ptr %retval.0.i60, ptr %chunkContents, align 8
  br i1 %tobool11.not, label %if.end29, label %if.then23

if.then23:                                        ; preds = %_ZNK6icu_7513UnicodeString9getBufferEv.exit
  %sub24 = sub nsw i32 %conv.i48, %start32.1
  %chunkLength = getelementptr inbounds i8, ptr %ut, i64 44
  %14 = load i32, ptr %chunkLength, align 4
  %add25 = add nsw i32 %14, %sub24
  store i32 %add25, ptr %chunkLength, align 4
  %conv27 = sext i32 %add25 to i64
  %chunkNativeLimit = getelementptr inbounds i8, ptr %ut, i64 16
  store i64 %conv27, ptr %chunkNativeLimit, align 8
  %nativeIndexingLimit = getelementptr inbounds i8, ptr %ut, i64 28
  store i32 %add25, ptr %nativeIndexingLimit, align 4
  br label %if.end29

if.end29:                                         ; preds = %if.then23, %_ZNK6icu_7513UnicodeString9getBufferEv.exit
  %add30 = add nsw i32 %conv.i55, %conv.i48
  %sub31 = sub i32 %add30, %start32.1
  %chunkOffset = getelementptr inbounds i8, ptr %ut, i64 40
  %cmp34 = icmp sgt i32 %conv.i55, %start32.1
  %or.cond42 = and i1 %tobool11.not, %cmp34
  %spec.store.select = select i1 %or.cond42, i32 %conv.i55, i32 %sub31
  store i32 %spec.store.select, ptr %chunkOffset, align 8
  br label %if.end37

if.end37:                                         ; preds = %if.end29, %entry, %if.then9
  ret void
}